; Function Attrs: nofree norecurse nosync nounwind memory(argmem: readwrite) uwtable
define internal void @filter_intra_16bit(ptr noundef writeonly captures(none) %0, ptr noundef readonly captures(none) %1, i32 noundef %2, i32 noundef %3, i32 noundef %4, i32 noundef %5, i32 noundef %6, i32 %7, i32 noundef %8) #0 {
  %10 = icmp sgt i32 %2, 0
  br i1 %10, label %.lr.ph, label %._crit_edge

.lr.ph:                                           ; preds = %9
  %11 = sext i32 %4 to i64
  %12 = sext i32 %3 to i64
  %13 = sext i32 %6 to i64
  %14 = sext i32 %5 to i64
  br label %15

15:                                               ; preds = %.lr.ph, %15
  %.021 = phi i32 [ 0, %.lr.ph ], [ %38, %15 ]
  %.01720 = phi ptr [ %0, %.lr.ph ], [ %36, %15 ]
  %.01819 = phi ptr [ %1, %.lr.ph ], [ %37, %15 ]
  %16 = getelementptr inbounds i16, ptr %.01819, i64 %11
  %17 = load i16, ptr %16, align 2, !tbaa !17
  %18 = zext i16 %17 to i32
  %19 = getelementptr inbounds i16, ptr %.01819, i64 %12
  %20 = load i16, ptr %19, align 2, !tbaa !17
  %21 = zext i16 %20 to i32
  %22 = add nuw nsw i32 %21, %18
  %23 = mul nuw nsw i32 %22, 5077
  %24 = getelementptr inbounds i16, ptr %.01819, i64 %13
  %25 = load i16, ptr %24, align 2, !tbaa !17
  %26 = zext i16 %25 to i32
  %27 = getelementptr inbounds i16, ptr %.01819, i64 %14
  %28 = load i16, ptr %27, align 2, !tbaa !17
  %29 = zext i16 %28 to i32
  %30 = add nuw nsw i32 %29, %26
  %.neg = mul nsw i32 %30, -981
  %31 = add nsw i32 %.neg, %23
  %32 = ashr i32 %31, 13
  %33 = icmp slt i32 %32, 0
  %..i = tail call i32 @llvm.smin.i32(i32 %32, i32 %8)
  %34 = trunc i32 %..i to i16
  %35 = select i1 %33, i16 0, i16 %34
  store i16 %35, ptr %.01720, align 2, !tbaa !17
  %36 = getelementptr inbounds nuw i8, ptr %.01720, i64 2
  %37 = getelementptr inbounds nuw i8, ptr %.01819, i64 2
  %38 = add nuw nsw i32 %.021, 1
  %exitcond.not = icmp eq i32 %38, %2
  br i1 %exitcond.not, label %._crit_edge, label %15, !llvm.loop !19

._crit_edge:                                      ; preds = %15, %9
  ret void
}